target datalayout = "e-m:e-p270:32:32-p271:32:32-p272:64:64-i64:64-i128:128-f80:128-n8:16:32:64-S128"
target triple = "x86_64-pc-linux-gnu"

; Function Attrs: nounwind uwtable
define void @ff_ivi_inverse_slant_4x4(ptr noundef %0, ptr noundef %1, i64 noundef %2, ptr noundef %3) #0 {
  %5 = alloca ptr, align 8
  %6 = alloca ptr, align 8
  %7 = alloca i64, align 8
  %8 = alloca ptr, align 8
  %9 = alloca i32, align 4
  %10 = alloca ptr, align 8
  %11 = alloca ptr, align 8
  %12 = alloca [16 x i32], align 16
  %13 = alloca i32, align 4
  %14 = alloca i32, align 4
  %15 = alloca i32, align 4
  %16 = alloca i32, align 4
  %17 = alloca i32, align 4
  store ptr %0, ptr %5, align 8, !tbaa !40
  store ptr %1, ptr %6, align 8, !tbaa !30
  store i64 %2, ptr %7, align 8, !tbaa !11
  store ptr %3, ptr %8, align 8, !tbaa !9
  call void @llvm.lifetime.start.p0(i64 4, ptr %9) #4
  call void @llvm.lifetime.start.p0(i64 8, ptr %10) #4
  call void @llvm.lifetime.start.p0(i64 8, ptr %11) #4
  call void @llvm.lifetime.start.p0(i64 64, ptr %12) #4
  call void @llvm.lifetime.start.p0(i64 4, ptr %13) #4
  call void @llvm.lifetime.start.p0(i64 4, ptr %14) #4
  call void @llvm.lifetime.start.p0(i64 4, ptr %15) #4
  call void @llvm.lifetime.start.p0(i64 4, ptr %16) #4
  call void @llvm.lifetime.start.p0(i64 4, ptr %17) #4
  %18 = load ptr, ptr %5, align 8, !tbaa !40
  store ptr %18, ptr %10, align 8, !tbaa !40
  %19 = getelementptr inbounds [16 x i32], ptr %12, i64 0, i64 0
  store ptr %19, ptr %11, align 8, !tbaa !40
  store i32 0, ptr %9, align 4, !tbaa !13
  br label %20

20:                                               ; preds = %115, %4
  %21 = load i32, ptr %9, align 4, !tbaa !13
  %22 = icmp slt i32 %21, 4
  br i1 %22, label %23, label %118

23:                                               ; preds = %20
  %24 = load ptr, ptr %8, align 8, !tbaa !9
  %25 = load i32, ptr %9, align 4, !tbaa !13
  %26 = sext i32 %25 to i64
  %27 = getelementptr inbounds i8, ptr %24, i64 %26
  %28 = load i8, ptr %27, align 1, !tbaa !34
  %29 = icmp ne i8 %28, 0
  br i1 %29, label %30, label %101

30:                                               ; preds = %23
  %31 = load ptr, ptr %10, align 8, !tbaa !40
  %32 = getelementptr inbounds i32, ptr %31, i64 0
  %33 = load i32, ptr %32, align 4, !tbaa !13
  %34 = load ptr, ptr %10, align 8, !tbaa !40
  %35 = getelementptr inbounds i32, ptr %34, i64 8
  %36 = load i32, ptr %35, align 4, !tbaa !13
  %37 = sub nsw i32 %33, %36
  store i32 %37, ptr %13, align 4, !tbaa !13
  %38 = load ptr, ptr %10, align 8, !tbaa !40
  %39 = getelementptr inbounds i32, ptr %38, i64 0
  %40 = load i32, ptr %39, align 4, !tbaa !13
  %41 = load ptr, ptr %10, align 8, !tbaa !40
  %42 = getelementptr inbounds i32, ptr %41, i64 8
  %43 = load i32, ptr %42, align 4, !tbaa !13
  %44 = add nsw i32 %40, %43
  store i32 %44, ptr %14, align 4, !tbaa !13
  %45 = load i32, ptr %13, align 4, !tbaa !13
  store i32 %45, ptr %15, align 4, !tbaa !13
  %46 = load ptr, ptr %10, align 8, !tbaa !40
  %47 = getelementptr inbounds i32, ptr %46, i64 4
  %48 = load i32, ptr %47, align 4, !tbaa !13
  %49 = load ptr, ptr %10, align 8, !tbaa !40
  %50 = getelementptr inbounds i32, ptr %49, i64 12
  %51 = load i32, ptr %50, align 4, !tbaa !13
  %52 = mul nsw i32 %51, 2
  %53 = add nsw i32 %48, %52
  %54 = add nsw i32 %53, 2
  %55 = ashr i32 %54, 2
  %56 = load ptr, ptr %10, align 8, !tbaa !40
  %57 = getelementptr inbounds i32, ptr %56, i64 4
  %58 = load i32, ptr %57, align 4, !tbaa !13
  %59 = add nsw i32 %55, %58
  store i32 %59, ptr %13, align 4, !tbaa !13
  %60 = load ptr, ptr %10, align 8, !tbaa !40
  %61 = getelementptr inbounds i32, ptr %60, i64 4
  %62 = load i32, ptr %61, align 4, !tbaa !13
  %63 = mul nsw i32 %62, 2
  %64 = load ptr, ptr %10, align 8, !tbaa !40
  %65 = getelementptr inbounds i32, ptr %64, i64 12
  %66 = load i32, ptr %65, align 4, !tbaa !13
  %67 = sub nsw i32 %63, %66
  %68 = add nsw i32 %67, 2
  %69 = ashr i32 %68, 2
  %70 = load ptr, ptr %10, align 8, !tbaa !40
  %71 = getelementptr inbounds i32, ptr %70, i64 12
  %72 = load i32, ptr %71, align 4, !tbaa !13
  %73 = sub nsw i32 %69, %72
  store i32 %73, ptr %16, align 4, !tbaa !13
  %74 = load i32, ptr %13, align 4, !tbaa !13
  store i32 %74, ptr %17, align 4, !tbaa !13
  %75 = load i32, ptr %14, align 4, !tbaa !13
  %76 = load i32, ptr %17, align 4, !tbaa !13
  %77 = sub nsw i32 %75, %76
  store i32 %77, ptr %13, align 4, !tbaa !13
  %78 = load i32, ptr %14, align 4, !tbaa !13
  %79 = load i32, ptr %17, align 4, !tbaa !13
  %80 = add nsw i32 %78, %79
  store i32 %80, ptr %14, align 4, !tbaa !13
  %81 = load i32, ptr %13, align 4, !tbaa !13
  store i32 %81, ptr %17, align 4, !tbaa !13
  %82 = load i32, ptr %15, align 4, !tbaa !13
  %83 = load i32, ptr %16, align 4, !tbaa !13
  %84 = sub nsw i32 %82, %83
  store i32 %84, ptr %13, align 4, !tbaa !13
  %85 = load i32, ptr %15, align 4, !tbaa !13
  %86 = load i32, ptr %16, align 4, !tbaa !13
  %87 = add nsw i32 %85, %86
  store i32 %87, ptr %15, align 4, !tbaa !13
  %88 = load i32, ptr %13, align 4, !tbaa !13
  store i32 %88, ptr %16, align 4, !tbaa !13
  %89 = load i32, ptr %14, align 4, !tbaa !13
  %90 = load ptr, ptr %11, align 8, !tbaa !40
  %91 = getelementptr inbounds i32, ptr %90, i64 0
  store i32 %89, ptr %91, align 4, !tbaa !13
  %92 = load i32, ptr %15, align 4, !tbaa !13
  %93 = load ptr, ptr %11, align 8, !tbaa !40
  %94 = getelementptr inbounds i32, ptr %93, i64 4
  store i32 %92, ptr %94, align 4, !tbaa !13
  %95 = load i32, ptr %16, align 4, !tbaa !13
  %96 = load ptr, ptr %11, align 8, !tbaa !40
  %97 = getelementptr inbounds i32, ptr %96, i64 8
  store i32 %95, ptr %97, align 4, !tbaa !13
  %98 = load i32, ptr %17, align 4, !tbaa !13
  %99 = load ptr, ptr %11, align 8, !tbaa !40
  %100 = getelementptr inbounds i32, ptr %99, i64 12
  store i32 %98, ptr %100, align 4, !tbaa !13
  br label %110

101:                                              ; preds = %23
  %102 = load ptr, ptr %11, align 8, !tbaa !40
  %103 = getelementptr inbounds i32, ptr %102, i64 12
  store i32 0, ptr %103, align 4, !tbaa !13
  %104 = load ptr, ptr %11, align 8, !tbaa !40
  %105 = getelementptr inbounds i32, ptr %104, i64 8
  store i32 0, ptr %105, align 4, !tbaa !13
  %106 = load ptr, ptr %11, align 8, !tbaa !40
  %107 = getelementptr inbounds i32, ptr %106, i64 4
  store i32 0, ptr %107, align 4, !tbaa !13
  %108 = load ptr, ptr %11, align 8, !tbaa !40
  %109 = getelementptr inbounds i32, ptr %108, i64 0
  store i32 0, ptr %109, align 4, !tbaa !13
  br label %110

110:                                              ; preds = %101, %30
  %111 = load ptr, ptr %10, align 8, !tbaa !40
  %112 = getelementptr inbounds nuw i32, ptr %111, i32 1
  store ptr %112, ptr %10, align 8, !tbaa !40
  %113 = load ptr, ptr %11, align 8, !tbaa !40
  %114 = getelementptr inbounds nuw i32, ptr %113, i32 1
  store ptr %114, ptr %11, align 8, !tbaa !40
  br label %115

115:                                              ; preds = %110
  %116 = load i32, ptr %9, align 4, !tbaa !13
  %117 = add nsw i32 %116, 1
  store i32 %117, ptr %9, align 4, !tbaa !13
  br label %20, !llvm.loop !54

118:                                              ; preds = %20
  %119 = getelementptr inbounds [16 x i32], ptr %12, i64 0, i64 0
  store ptr %119, ptr %10, align 8, !tbaa !40
  store i32 0, ptr %9, align 4, !tbaa !13
  br label %120

120:                                              ; preds = %241, %118
  %121 = load i32, ptr %9, align 4, !tbaa !13
  %122 = icmp slt i32 %121, 4
  br i1 %122, label %123, label %244

123:                                              ; preds = %120
  %124 = load ptr, ptr %10, align 8, !tbaa !40
  %125 = getelementptr inbounds i32, ptr %124, i64 0
  %126 = load i32, ptr %125, align 4, !tbaa !13
  %127 = icmp ne i32 %126, 0
  br i1 %127, label %152, label %128

128:                                              ; preds = %123
  %129 = load ptr, ptr %10, align 8, !tbaa !40
  %130 = getelementptr inbounds i32, ptr %129, i64 1
  %131 = load i32, ptr %130, align 4, !tbaa !13
  %132 = icmp ne i32 %131, 0
  br i1 %132, label %152, label %133

133:                                              ; preds = %128
  %134 = load ptr, ptr %10, align 8, !tbaa !40
  %135 = getelementptr inbounds i32, ptr %134, i64 2
  %136 = load i32, ptr %135, align 4, !tbaa !13
  %137 = icmp ne i32 %136, 0
  br i1 %137, label %152, label %138

138:                                              ; preds = %133
  %139 = load ptr, ptr %10, align 8, !tbaa !40
  %140 = getelementptr inbounds i32, ptr %139, i64 3
  %141 = load i32, ptr %140, align 4, !tbaa !13
  %142 = icmp ne i32 %141, 0
  br i1 %142, label %152, label %143

143:                                              ; preds = %138
  %144 = load ptr, ptr %6, align 8, !tbaa !30
  %145 = getelementptr inbounds i16, ptr %144, i64 3
  store i16 0, ptr %145, align 2, !tbaa !32
  %146 = load ptr, ptr %6, align 8, !tbaa !30
  %147 = getelementptr inbounds i16, ptr %146, i64 2
  store i16 0, ptr %147, align 2, !tbaa !32
  %148 = load ptr, ptr %6, align 8, !tbaa !30
  %149 = getelementptr inbounds i16, ptr %148, i64 1
  store i16 0, ptr %149, align 2, !tbaa !32
  %150 = load ptr, ptr %6, align 8, !tbaa !30
  %151 = getelementptr inbounds i16, ptr %150, i64 0
  store i16 0, ptr %151, align 2, !tbaa !32
  br label %235

152:                                              ; preds = %138, %133, %128, %123
  %153 = load ptr, ptr %10, align 8, !tbaa !40
  %154 = getelementptr inbounds i32, ptr %153, i64 0
  %155 = load i32, ptr %154, align 4, !tbaa !13
  %156 = load ptr, ptr %10, align 8, !tbaa !40
  %157 = getelementptr inbounds i32, ptr %156, i64 2
  %158 = load i32, ptr %157, align 4, !tbaa !13
  %159 = sub nsw i32 %155, %158
  store i32 %159, ptr %13, align 4, !tbaa !13
  %160 = load ptr, ptr %10, align 8, !tbaa !40
  %161 = getelementptr inbounds i32, ptr %160, i64 0
  %162 = load i32, ptr %161, align 4, !tbaa !13
  %163 = load ptr, ptr %10, align 8, !tbaa !40
  %164 = getelementptr inbounds i32, ptr %163, i64 2
  %165 = load i32, ptr %164, align 4, !tbaa !13
  %166 = add nsw i32 %162, %165
  store i32 %166, ptr %14, align 4, !tbaa !13
  %167 = load i32, ptr %13, align 4, !tbaa !13
  store i32 %167, ptr %15, align 4, !tbaa !13
  %168 = load ptr, ptr %10, align 8, !tbaa !40
  %169 = getelementptr inbounds i32, ptr %168, i64 1
  %170 = load i32, ptr %169, align 4, !tbaa !13
  %171 = load ptr, ptr %10, align 8, !tbaa !40
  %172 = getelementptr inbounds i32, ptr %171, i64 3
  %173 = load i32, ptr %172, align 4, !tbaa !13
  %174 = mul nsw i32 %173, 2
  %175 = add nsw i32 %170, %174
  %176 = add nsw i32 %175, 2
  %177 = ashr i32 %176, 2
  %178 = load ptr, ptr %10, align 8, !tbaa !40
  %179 = getelementptr inbounds i32, ptr %178, i64 1
  %180 = load i32, ptr %179, align 4, !tbaa !13
  %181 = add nsw i32 %177, %180
  store i32 %181, ptr %13, align 4, !tbaa !13
  %182 = load ptr, ptr %10, align 8, !tbaa !40
  %183 = getelementptr inbounds i32, ptr %182, i64 1
  %184 = load i32, ptr %183, align 4, !tbaa !13
  %185 = mul nsw i32 %184, 2
  %186 = load ptr, ptr %10, align 8, !tbaa !40
  %187 = getelementptr inbounds i32, ptr %186, i64 3
  %188 = load i32, ptr %187, align 4, !tbaa !13
  %189 = sub nsw i32 %185, %188
  %190 = add nsw i32 %189, 2
  %191 = ashr i32 %190, 2
  %192 = load ptr, ptr %10, align 8, !tbaa !40
  %193 = getelementptr inbounds i32, ptr %192, i64 3
  %194 = load i32, ptr %193, align 4, !tbaa !13
  %195 = sub nsw i32 %191, %194
  store i32 %195, ptr %16, align 4, !tbaa !13
  %196 = load i32, ptr %13, align 4, !tbaa !13
  store i32 %196, ptr %17, align 4, !tbaa !13
  %197 = load i32, ptr %14, align 4, !tbaa !13
  %198 = load i32, ptr %17, align 4, !tbaa !13
  %199 = sub nsw i32 %197, %198
  store i32 %199, ptr %13, align 4, !tbaa !13
  %200 = load i32, ptr %14, align 4, !tbaa !13
  %201 = load i32, ptr %17, align 4, !tbaa !13
  %202 = add nsw i32 %200, %201
  store i32 %202, ptr %14, align 4, !tbaa !13
  %203 = load i32, ptr %13, align 4, !tbaa !13
  store i32 %203, ptr %17, align 4, !tbaa !13
  %204 = load i32, ptr %15, align 4, !tbaa !13
  %205 = load i32, ptr %16, align 4, !tbaa !13
  %206 = sub nsw i32 %204, %205
  store i32 %206, ptr %13, align 4, !tbaa !13
  %207 = load i32, ptr %15, align 4, !tbaa !13
  %208 = load i32, ptr %16, align 4, !tbaa !13
  %209 = add nsw i32 %207, %208
  store i32 %209, ptr %15, align 4, !tbaa !13
  %210 = load i32, ptr %13, align 4, !tbaa !13
  store i32 %210, ptr %16, align 4, !tbaa !13
  %211 = load i32, ptr %14, align 4, !tbaa !13
  %212 = add nsw i32 %211, 1
  %213 = ashr i32 %212, 1
  %214 = trunc i32 %213 to i16
  %215 = load ptr, ptr %6, align 8, !tbaa !30
  %216 = getelementptr inbounds i16, ptr %215, i64 0
  store i16 %214, ptr %216, align 2, !tbaa !32
  %217 = load i32, ptr %15, align 4, !tbaa !13
  %218 = add nsw i32 %217, 1
  %219 = ashr i32 %218, 1
  %220 = trunc i32 %219 to i16
  %221 = load ptr, ptr %6, align 8, !tbaa !30
  %222 = getelementptr inbounds i16, ptr %221, i64 1
  store i16 %220, ptr %222, align 2, !tbaa !32
  %223 = load i32, ptr %16, align 4, !tbaa !13
  %224 = add nsw i32 %223, 1
  %225 = ashr i32 %224, 1
  %226 = trunc i32 %225 to i16
  %227 = load ptr, ptr %6, align 8, !tbaa !30
  %228 = getelementptr inbounds i16, ptr %227, i64 2
  store i16 %226, ptr %228, align 2, !tbaa !32
  %229 = load i32, ptr %17, align 4, !tbaa !13
  %230 = add nsw i32 %229, 1
  %231 = ashr i32 %230, 1
  %232 = trunc i32 %231 to i16
  %233 = load ptr, ptr %6, align 8, !tbaa !30
  %234 = getelementptr inbounds i16, ptr %233, i64 3
  store i16 %232, ptr %234, align 2, !tbaa !32
  br label %235

235:                                              ; preds = %152, %143
  %236 = load ptr, ptr %10, align 8, !tbaa !40
  %237 = getelementptr inbounds i32, ptr %236, i64 4
  store ptr %237, ptr %10, align 8, !tbaa !40
  %238 = load i64, ptr %7, align 8, !tbaa !11
  %239 = load ptr, ptr %6, align 8, !tbaa !30
  %240 = getelementptr inbounds i16, ptr %239, i64 %238
  store ptr %240, ptr %6, align 8, !tbaa !30
  br label %241

241:                                              ; preds = %235
  %242 = load i32, ptr %9, align 4, !tbaa !13
  %243 = add nsw i32 %242, 1
  store i32 %243, ptr %9, align 4, !tbaa !13
  br label %120, !llvm.loop !55

244:                                              ; preds = %120
  call void @llvm.lifetime.end.p0(i64 4, ptr %17) #4
  call void @llvm.lifetime.end.p0(i64 4, ptr %16) #4
  call void @llvm.lifetime.end.p0(i64 4, ptr %15) #4
  call void @llvm.lifetime.end.p0(i64 4, ptr %14) #4
  call void @llvm.lifetime.end.p0(i64 4, ptr %13) #4
  call void @llvm.lifetime.end.p0(i64 64, ptr %12) #4
  call void @llvm.lifetime.end.p0(i64 8, ptr %11) #4
  call void @llvm.lifetime.end.p0(i64 8, ptr %10) #4
  call void @llvm.lifetime.end.p0(i64 4, ptr %9) #4
  ret void
}