; Function Attrs: nofree norecurse nosync nounwind memory(argmem: readwrite) uwtable
define void @ff_ivi_inverse_slant_4x4(ptr noundef readonly captures(none) %0, ptr noundef writeonly captures(none) %1, i64 noundef %2, ptr noundef readonly captures(none) %3) local_unnamed_addr #2 {
  %5 = alloca [16 x i32], align 16
  call void @llvm.lifetime.start.p0(i64 64, ptr nonnull %5) #5
  br label %6

6:                                                ; preds = %4, %32
  %indvars.iv = phi i64 [ 0, %4 ], [ %indvars.iv.next, %32 ]
  %.096 = phi ptr [ %5, %4 ], [ %37, %32 ]
  %.08395 = phi ptr [ %0, %4 ], [ %36, %32 ]
  %7 = getelementptr inbounds nuw i8, ptr %3, i64 %indvars.iv
  %8 = load i8, ptr %7, align 1, !tbaa !28
  %.not90 = icmp eq i8 %8, 0
  br i1 %.not90, label %32, label %9

9:                                                ; preds = %6
  %10 = load i32, ptr %.08395, align 4, !tbaa !34
  %11 = getelementptr inbounds nuw i8, ptr %.08395, i64 32
  %12 = load i32, ptr %11, align 4, !tbaa !34
  %13 = sub nsw i32 %10, %12
  %14 = add nsw i32 %12, %10
  %15 = getelementptr inbounds nuw i8, ptr %.08395, i64 16
  %16 = load i32, ptr %15, align 4, !tbaa !34
  %17 = getelementptr inbounds nuw i8, ptr %.08395, i64 48
  %18 = load i32, ptr %17, align 4, !tbaa !34
  %19 = shl nsw i32 %18, 1
  %20 = add i32 %16, 2
  %21 = add i32 %20, %19
  %22 = ashr i32 %21, 2
  %23 = add nsw i32 %22, %16
  %24 = shl nsw i32 %16, 1
  %reass.sub = sub i32 %24, %18
  %25 = add i32 %reass.sub, 2
  %26 = ashr i32 %25, 2
  %27 = sub nsw i32 %26, %18
  %28 = sub nsw i32 %14, %23
  %29 = add nsw i32 %23, %14
  %30 = sub nsw i32 %13, %27
  %31 = add nsw i32 %27, %13
  br label %32

32:                                               ; preds = %6, %9
  %.sink105 = phi i32 [ %28, %9 ], [ 0, %6 ]
  %.sink104 = phi i32 [ %30, %9 ], [ 0, %6 ]
  %.sink103 = phi i32 [ %31, %9 ], [ 0, %6 ]
  %.sink = phi i32 [ %29, %9 ], [ 0, %6 ]
  %33 = getelementptr inbounds nuw i8, ptr %.096, i64 48
  store i32 %.sink105, ptr %33, align 4, !tbaa !34
  %34 = getelementptr inbounds nuw i8, ptr %.096, i64 32
  store i32 %.sink104, ptr %34, align 4, !tbaa !34
  %35 = getelementptr inbounds nuw i8, ptr %.096, i64 16
  store i32 %.sink103, ptr %35, align 4, !tbaa !34
  store i32 %.sink, ptr %.096, align 4, !tbaa !34
  %36 = getelementptr inbounds nuw i8, ptr %.08395, i64 4
  %37 = getelementptr inbounds nuw i8, ptr %.096, i64 4
  %indvars.iv.next = add nuw nsw i64 %indvars.iv, 1
  %exitcond.not = icmp eq i64 %indvars.iv.next, 4
  br i1 %exitcond.not, label %.preheader, label %6, !llvm.loop !47

.preheader:                                       ; preds = %32, %81
  %.199 = phi ptr [ %82, %81 ], [ %5, %32 ]
  %.18598 = phi i32 [ %84, %81 ], [ 0, %32 ]
  %.08697 = phi ptr [ %83, %81 ], [ %1, %32 ]
  %38 = load i32, ptr %.199, align 4, !tbaa !34
  %.not = icmp eq i32 %38, 0
  %39 = getelementptr inbounds nuw i8, ptr %.199, i64 4
  %40 = load i32, ptr %39, align 4, !tbaa !34
  %.not87 = icmp eq i32 %40, 0
  %or.cond = select i1 %.not, i1 %.not87, i1 false
  br i1 %or.cond, label %41, label %.preheader._crit_edge

41:                                               ; preds = %.preheader
  %42 = getelementptr inbounds nuw i8, ptr %.199, i64 8
  %43 = load i32, ptr %42, align 4, !tbaa !34
  %.not88 = icmp eq i32 %43, 0
  br i1 %.not88, label %44, label %.preheader._crit_edge

44:                                               ; preds = %41
  %45 = getelementptr inbounds nuw i8, ptr %.199, i64 12
  %46 = load i32, ptr %45, align 4, !tbaa !34
  %.not89 = icmp eq i32 %46, 0
  br i1 %.not89, label %47, label %.preheader._crit_edge

47:                                               ; preds = %44
  store i64 0, ptr %.08697, align 2
  br label %81

.preheader._crit_edge:                            ; preds = %.preheader, %44, %41
  %48 = phi i32 [ 0, %44 ], [ 0, %41 ], [ %40, %.preheader ]
  %49 = getelementptr inbounds nuw i8, ptr %.199, i64 8
  %50 = load i32, ptr %49, align 4, !tbaa !34
  %51 = sub nsw i32 %38, %50
  %52 = add nsw i32 %50, %38
  %53 = getelementptr inbounds nuw i8, ptr %.199, i64 12
  %54 = load i32, ptr %53, align 4, !tbaa !34
  %55 = shl nsw i32 %54, 1
  %56 = add i32 %48, 2
  %57 = add i32 %56, %55
  %58 = ashr i32 %57, 2
  %59 = add nsw i32 %58, %48
  %60 = shl nsw i32 %48, 1
  %reass.sub100 = sub i32 %60, %54
  %61 = add i32 %reass.sub100, 2
  %62 = ashr i32 %61, 2
  %63 = sub nsw i32 %62, %54
  %64 = add i32 %52, 1
  %65 = add i32 %64, %59
  %66 = lshr i32 %65, 1
  %67 = trunc i32 %66 to i16
  store i16 %67, ptr %.08697, align 2, !tbaa !27
  %68 = add i32 %51, 1
  %69 = add i32 %68, %63
  %70 = lshr i32 %69, 1
  %71 = trunc i32 %70 to i16
  %72 = getelementptr inbounds nuw i8, ptr %.08697, i64 2
  store i16 %71, ptr %72, align 2, !tbaa !27
  %73 = sub i32 %68, %63
  %74 = lshr i32 %73, 1
  %75 = trunc i32 %74 to i16
  %76 = getelementptr inbounds nuw i8, ptr %.08697, i64 4
  store i16 %75, ptr %76, align 2, !tbaa !27
  %77 = sub i32 %64, %59
  %78 = lshr i32 %77, 1
  %79 = trunc i32 %78 to i16
  %80 = getelementptr inbounds nuw i8, ptr %.08697, i64 6
  store i16 %79, ptr %80, align 2, !tbaa !27
  br label %81

81:                                               ; preds = %.preheader._crit_edge, %47
  %82 = getelementptr inbounds nuw i8, ptr %.199, i64 16
  %83 = getelementptr inbounds i16, ptr %.08697, i64 %2
  %84 = add nuw nsw i32 %.18598, 1
  %exitcond102.not = icmp eq i32 %84, 4
  br i1 %exitcond102.not, label %85, label %.preheader, !llvm.loop !48

85:                                               ; preds = %81
  call void @llvm.lifetime.end.p0(i64 64, ptr nonnull %5) #5
  ret void
}